target datalayout = "e-m:e-p270:32:32-p271:32:32-p272:64:64-i64:64-i128:128-f80:128-n8:16:32:64-S128"
target triple = "x86_64-pc-linux-gnu"

%struct.Abc_Ntk_t_ = type { i32, i32, ptr, ptr, ptr, ptr, ptr, ptr, ptr, ptr, ptr, ptr, ptr, [11 x i32], i32, i32, i32, i32, ptr, i32, ptr, ptr, i32, i32, i32, double, i32, %struct.Vec_Int_t_, ptr, ptr, ptr, ptr, ptr, float, i32, ptr, ptr, ptr, ptr, ptr, ptr, ptr, ptr, ptr, ptr, ptr, ptr, ptr, ptr, ptr, ptr, ptr, ptr, ptr, ptr, ptr }
%struct.Vec_Int_t_ = type { i32, i32, ptr }
%struct.Abc_Obj_t_ = type { ptr, ptr, i32, i32, %struct.Vec_Int_t_, %struct.Vec_Int_t_, %union.anon, %union.anon.0 }
%union.anon = type { ptr }
%union.anon.0 = type { ptr }

; Function Attrs: nounwind uwtable
define internal ptr @Abc_ObjNotCond(ptr noundef %0, i32 noundef %1) #0 {
  %3 = alloca ptr, align 8
  %4 = alloca i32, align 4
  store ptr %0, ptr %3, align 8
  store i32 %1, ptr %4, align 4
  %5 = load ptr, ptr %3, align 8
  %6 = ptrtoint ptr %5 to i64
  %7 = load i32, ptr %4, align 4
  %8 = icmp ne i32 %7, 0
  %9 = zext i1 %8 to i32
  %10 = sext i32 %9 to i64
  %11 = xor i64 %6, %10
  %12 = inttoptr i64 %11 to ptr
  ret ptr %12
}

; Function Attrs: nounwind uwtable
define internal ptr @Abc_NodeFromFraig_rec(ptr noundef %0, ptr noundef %1) #0 {
  %3 = alloca ptr, align 8
  %4 = alloca ptr, align 8
  %5 = alloca ptr, align 8
  %6 = alloca ptr, align 8
  %7 = alloca ptr, align 8
  %8 = alloca ptr, align 8
  %9 = alloca ptr, align 8
  %10 = alloca ptr, align 8
  %11 = alloca ptr, align 8
  %12 = alloca ptr, align 8
  %13 = alloca ptr, align 8
  store ptr %0, ptr %4, align 8
  store ptr %1, ptr %5, align 8
  %14 = load ptr, ptr %5, align 8
  %15 = ptrtoint ptr %14 to i64
  %16 = and i64 %15, -2
  %17 = inttoptr i64 %16 to ptr
  store ptr %17, ptr %12, align 8
  %18 = load ptr, ptr %12, align 8
  %19 = call ptr @Fraig_NodeReadData1(ptr noundef %18)
  store ptr %19, ptr %6, align 8
  %20 = icmp ne ptr %19, null
  br i1 %20, label %21, label %28

21:                                               ; preds = %2
  %22 = load ptr, ptr %6, align 8
  %23 = load ptr, ptr %5, align 8
  %24 = ptrtoint ptr %23 to i64
  %25 = and i64 %24, 1
  %26 = trunc i64 %25 to i32
  %27 = call ptr @Abc_ObjNotCond(ptr noundef %22, i32 noundef %26)
  store ptr %27, ptr %3, align 8
  br label %140

28:                                               ; preds = %2
  %29 = load ptr, ptr %4, align 8
  %30 = load ptr, ptr %12, align 8
  %31 = call ptr @Fraig_NodeReadOne(ptr noundef %30)
  %32 = call ptr @Abc_NodeFromFraig_rec(ptr noundef %29, ptr noundef %31)
  store ptr %32, ptr %7, align 8
  %33 = load ptr, ptr %4, align 8
  %34 = load ptr, ptr %12, align 8
  %35 = call ptr @Fraig_NodeReadTwo(ptr noundef %34)
  %36 = call ptr @Abc_NodeFromFraig_rec(ptr noundef %33, ptr noundef %35)
  store ptr %36, ptr %8, align 8
  %37 = load ptr, ptr %4, align 8
  %38 = getelementptr inbounds %struct.Abc_Ntk_t_, ptr %37, i32 0, i32 30
  %39 = load ptr, ptr %38, align 8
  %40 = load ptr, ptr %7, align 8
  %41 = load ptr, ptr %8, align 8
  %42 = call ptr @Abc_AigAnd(ptr noundef %39, ptr noundef %40, ptr noundef %41)
  store ptr %42, ptr %6, align 8
  %43 = load ptr, ptr %12, align 8
  %44 = call i32 @Fraig_NodeReadSimInv(ptr noundef %43)
  %45 = load ptr, ptr %6, align 8
  %46 = getelementptr inbounds %struct.Abc_Obj_t_, ptr %45, i32 0, i32 3
  %47 = load i32, ptr %46, align 4
  %48 = and i32 %44, 1
  %49 = shl i32 %48, 7
  %50 = and i32 %47, -129
  %51 = or i32 %50, %49
  store i32 %51, ptr %46, align 4
  %52 = load ptr, ptr %12, align 8
  %53 = call ptr @Fraig_NodeReadRepr(ptr noundef %52)
  %54 = icmp eq ptr %53, null
  br i1 %54, label %55, label %131

55:                                               ; preds = %28
  %56 = load ptr, ptr %12, align 8
  %57 = call ptr @Fraig_NodeReadNextE(ptr noundef %56)
  %58 = icmp ne ptr %57, null
  br i1 %58, label %59, label %131

59:                                               ; preds = %55
  %60 = load ptr, ptr %6, align 8
  store ptr %60, ptr %9, align 8
  %61 = load ptr, ptr %12, align 8
  %62 = call ptr @Fraig_NodeReadNextE(ptr noundef %61)
  store ptr %62, ptr %11, align 8
  br label %63

63:                                               ; preds = %82, %59
  %64 = load ptr, ptr %11, align 8
  %65 = icmp ne ptr %64, null
  br i1 %65, label %66, label %85

66:                                               ; preds = %63
  %67 = load ptr, ptr %4, align 8
  %68 = load ptr, ptr %11, align 8
  %69 = call ptr @Abc_NodeFromFraig_rec(ptr noundef %67, ptr noundef %68)
  store ptr %69, ptr %10, align 8
  %70 = load ptr, ptr %9, align 8
  %71 = getelementptr inbounds %struct.Abc_Obj_t_, ptr %70, i32 0, i32 3
  %72 = load i32, ptr %71, align 4
  %73 = lshr i32 %72, 12
  %74 = load ptr, ptr %10, align 8
  %75 = getelementptr inbounds %struct.Abc_Obj_t_, ptr %74, i32 0, i32 3
  %76 = load i32, ptr %75, align 4
  %77 = lshr i32 %76, 12
  %78 = icmp sgt i32 %73, %77
  br i1 %78, label %79, label %81

79:                                               ; preds = %66
  %80 = load ptr, ptr %10, align 8
  store ptr %80, ptr %9, align 8
  br label %81

81:                                               ; preds = %79, %66
  br label %82

82:                                               ; preds = %81
  %83 = load ptr, ptr %11, align 8
  %84 = call ptr @Fraig_NodeReadNextE(ptr noundef %83)
  store ptr %84, ptr %11, align 8
  br label %63, !llvm.loop !23

85:                                               ; preds = %63
  %86 = load ptr, ptr %9, align 8
  %87 = getelementptr inbounds %struct.Abc_Obj_t_, ptr %86, i32 0, i32 6
  store ptr %87, ptr %13, align 8
  %88 = load ptr, ptr %6, align 8
  %89 = load ptr, ptr %9, align 8
  %90 = icmp ne ptr %88, %89
  br i1 %90, label %91, label %96

91:                                               ; preds = %85
  %92 = load ptr, ptr %6, align 8
  %93 = load ptr, ptr %13, align 8
  store ptr %92, ptr %93, align 8
  %94 = load ptr, ptr %6, align 8
  %95 = getelementptr inbounds %struct.Abc_Obj_t_, ptr %94, i32 0, i32 6
  store ptr %95, ptr %13, align 8
  br label %96

96:                                               ; preds = %91, %85
  %97 = load ptr, ptr %12, align 8
  %98 = call ptr @Fraig_NodeReadNextE(ptr noundef %97)
  store ptr %98, ptr %11, align 8
  br label %99

99:                                               ; preds = %114, %96
  %100 = load ptr, ptr %11, align 8
  %101 = icmp ne ptr %100, null
  br i1 %101, label %102, label %117

102:                                              ; preds = %99
  %103 = load ptr, ptr %11, align 8
  %104 = call ptr @Fraig_NodeReadData1(ptr noundef %103)
  store ptr %104, ptr %10, align 8
  %105 = load ptr, ptr %9, align 8
  %106 = load ptr, ptr %10, align 8
  %107 = icmp eq ptr %105, %106
  br i1 %107, label %108, label %109

108:                                              ; preds = %102
  br label %114

109:                                              ; preds = %102
  %110 = load ptr, ptr %10, align 8
  %111 = load ptr, ptr %13, align 8
  store ptr %110, ptr %111, align 8
  %112 = load ptr, ptr %10, align 8
  %113 = getelementptr inbounds %struct.Abc_Obj_t_, ptr %112, i32 0, i32 6
  store ptr %113, ptr %13, align 8
  br label %114

114:                                              ; preds = %109, %108
  %115 = load ptr, ptr %11, align 8
  %116 = call ptr @Fraig_NodeReadNextE(ptr noundef %115)
  store ptr %116, ptr %11, align 8
  br label %99, !llvm.loop !24

117:                                              ; preds = %99
  %118 = load ptr, ptr %9, align 8
  %119 = load ptr, ptr %6, align 8
  %120 = getelementptr inbounds %struct.Abc_Obj_t_, ptr %119, i32 0, i32 3
  %121 = load i32, ptr %120, align 4
  %122 = lshr i32 %121, 7
  %123 = and i32 %122, 1
  %124 = load ptr, ptr %9, align 8
  %125 = getelementptr inbounds %struct.Abc_Obj_t_, ptr %124, i32 0, i32 3
  %126 = load i32, ptr %125, align 4
  %127 = lshr i32 %126, 7
  %128 = and i32 %127, 1
  %129 = xor i32 %123, %128
  %130 = call ptr @Abc_ObjNotCond(ptr noundef %118, i32 noundef %129)
  store ptr %130, ptr %6, align 8
  br label %131

131:                                              ; preds = %117, %55, %28
  %132 = load ptr, ptr %12, align 8
  %133 = load ptr, ptr %6, align 8
  call void @Fraig_NodeSetData1(ptr noundef %132, ptr noundef %133)
  %134 = load ptr, ptr %6, align 8
  %135 = load ptr, ptr %5, align 8
  %136 = ptrtoint ptr %135 to i64
  %137 = and i64 %136, 1
  %138 = trunc i64 %137 to i32
  %139 = call ptr @Abc_ObjNotCond(ptr noundef %134, i32 noundef %138)
  store ptr %139, ptr %3, align 8
  br label %140

140:                                              ; preds = %131, %21
  %141 = load ptr, ptr %3, align 8
  ret ptr %141
}