; Function Attrs: nounwind uwtable
define internal fastcc ptr @Abc_NodeFromFraig_rec(ptr noundef %0, ptr noundef %1) unnamed_addr #0 {
  %3 = ptrtoint ptr %1 to i64
  %4 = and i64 %3, -2
  %5 = inttoptr i64 %4 to ptr
  %6 = tail call ptr @Fraig_NodeReadData1(ptr noundef %5) #11
  %.not = icmp eq ptr %6, null
  br i1 %.not, label %7, label %59

7:                                                ; preds = %2
  %8 = tail call ptr @Fraig_NodeReadOne(ptr noundef %5) #11
  %9 = tail call fastcc ptr @Abc_NodeFromFraig_rec(ptr noundef %0, ptr noundef %8)
  %10 = tail call ptr @Fraig_NodeReadTwo(ptr noundef %5) #11
  %11 = tail call fastcc ptr @Abc_NodeFromFraig_rec(ptr noundef %0, ptr noundef %10)
  %12 = getelementptr inbounds nuw i8, ptr %0, i64 256
  %13 = load ptr, ptr %12, align 8
  %14 = tail call ptr @Abc_AigAnd(ptr noundef %13, ptr noundef %9, ptr noundef %11) #11
  %15 = tail call i32 @Fraig_NodeReadSimInv(ptr noundef %5) #11
  %16 = getelementptr inbounds nuw i8, ptr %14, i64 20
  %17 = load i32, ptr %16, align 4
  %18 = shl i32 %15, 7
  %19 = and i32 %18, 128
  %20 = and i32 %17, -129
  %21 = or disjoint i32 %20, %19
  store i32 %21, ptr %16, align 4
  %22 = tail call ptr @Fraig_NodeReadRepr(ptr noundef %5) #11
  %23 = icmp eq ptr %22, null
  br i1 %23, label %24, label %58

24:                                               ; preds = %7
  %25 = tail call ptr @Fraig_NodeReadNextE(ptr noundef %5) #11
  %.not56 = icmp eq ptr %25, null
  br i1 %.not56, label %58, label %26

26:                                               ; preds = %24
  %27 = tail call ptr @Fraig_NodeReadNextE(ptr noundef %5) #11
  %.not5760 = icmp eq ptr %27, null
  br i1 %.not5760, label %._crit_edge.thread, label %.lr.ph

._crit_edge.thread:                               ; preds = %26
  %28 = getelementptr inbounds nuw i8, ptr %14, i64 56
  br label %41

.lr.ph:                                           ; preds = %26, %.lr.ph
  %.04862 = phi ptr [ %37, %.lr.ph ], [ %27, %26 ]
  %.05061 = phi ptr [ %spec.select, %.lr.ph ], [ %14, %26 ]
  %29 = tail call fastcc ptr @Abc_NodeFromFraig_rec(ptr noundef %0, ptr noundef nonnull %.04862)
  %30 = getelementptr inbounds nuw i8, ptr %.05061, i64 20
  %31 = load i32, ptr %30, align 4
  %32 = lshr i32 %31, 12
  %33 = getelementptr inbounds nuw i8, ptr %29, i64 20
  %34 = load i32, ptr %33, align 4
  %35 = lshr i32 %34, 12
  %36 = icmp samesign ugt i32 %32, %35
  %spec.select = select i1 %36, ptr %29, ptr %.05061
  %37 = tail call ptr @Fraig_NodeReadNextE(ptr noundef nonnull %.04862) #11
  %.not57 = icmp eq ptr %37, null
  br i1 %.not57, label %._crit_edge, label %.lr.ph, !llvm.loop !25

._crit_edge:                                      ; preds = %.lr.ph
  %38 = getelementptr inbounds nuw i8, ptr %spec.select, i64 56
  %.not58 = icmp eq ptr %14, %spec.select
  br i1 %.not58, label %41, label %39

39:                                               ; preds = %._crit_edge
  store ptr %14, ptr %38, align 8
  %40 = getelementptr inbounds nuw i8, ptr %14, i64 56
  br label %41

41:                                               ; preds = %._crit_edge.thread, %39, %._crit_edge
  %.050.lcssa71 = phi ptr [ %spec.select, %39 ], [ %spec.select, %._crit_edge ], [ %14, %._crit_edge.thread ]
  %.0 = phi ptr [ %40, %39 ], [ %38, %._crit_edge ], [ %28, %._crit_edge.thread ]
  %42 = tail call ptr @Fraig_NodeReadNextE(ptr noundef %5) #11
  %.not5963 = icmp eq ptr %42, null
  br i1 %.not5963, label %._crit_edge68, label %.lr.ph67

.lr.ph67:                                         ; preds = %41, %47
  %.165 = phi ptr [ %.2, %47 ], [ %.0, %41 ]
  %.14964 = phi ptr [ %48, %47 ], [ %42, %41 ]
  %43 = tail call ptr @Fraig_NodeReadData1(ptr noundef nonnull %.14964) #11
  %44 = icmp eq ptr %.050.lcssa71, %43
  br i1 %44, label %47, label %45

45:                                               ; preds = %.lr.ph67
  store ptr %43, ptr %.165, align 8
  %46 = getelementptr inbounds nuw i8, ptr %43, i64 56
  br label %47

47:                                               ; preds = %.lr.ph67, %45
  %.2 = phi ptr [ %.165, %.lr.ph67 ], [ %46, %45 ]
  %48 = tail call ptr @Fraig_NodeReadNextE(ptr noundef nonnull %.14964) #11
  %.not59 = icmp eq ptr %48, null
  br i1 %.not59, label %._crit_edge68, label %.lr.ph67, !llvm.loop !26

._crit_edge68:                                    ; preds = %47, %41
  %49 = load i32, ptr %16, align 4
  %50 = getelementptr inbounds nuw i8, ptr %.050.lcssa71, i64 20
  %51 = load i32, ptr %50, align 4
  %52 = xor i32 %51, %49
  %53 = ptrtoint ptr %.050.lcssa71 to i64
  %54 = lshr i32 %52, 7
  %.lobit = and i32 %54, 1
  %55 = zext nneg i32 %.lobit to i64
  %56 = xor i64 %55, %53
  %57 = inttoptr i64 %56 to ptr
  br label %58

58:                                               ; preds = %._crit_edge68, %24, %7
  %.052 = phi ptr [ %57, %._crit_edge68 ], [ %14, %24 ], [ %14, %7 ]
  tail call void @Fraig_NodeSetData1(ptr noundef %5, ptr noundef %.052) #11
  br label %59

59:                                               ; preds = %2, %58
  %.052.sink = phi ptr [ %.052, %58 ], [ %6, %2 ]
  %60 = ptrtoint ptr %.052.sink to i64
  %61 = and i64 %3, 1
  %62 = xor i64 %61, %60
  %.047 = inttoptr i64 %62 to ptr
  ret ptr %.047
}